target datalayout = "e-m:e-p270:32:32-p271:32:32-p272:64:64-i64:64-i128:128-f80:128-n8:16:32:64-S128"
target triple = "x86_64-pc-linux-gnu"

%struct.Elf64_Ehdr = type { [16 x i8], i16, i16, i32, i64, i64, i64, i32, i16, i16, i16, i16, i16, i16 }

@.str = private unnamed_addr constant [5 x i8] c"\7FELF\00", align 1

; Function Attrs: nounwind uwtable
define hidden i32 @read_elf_header(i32 noundef %0, ptr noundef %1) #0 {
  %3 = alloca i32, align 4
  %4 = alloca i32, align 4
  %5 = alloca ptr, align 8
  store i32 %0, ptr %4, align 4
  store ptr %1, ptr %5, align 8
  %6 = load i32, ptr %4, align 4
  %7 = load ptr, ptr %5, align 8
  %8 = call i64 @pread64(i32 noundef %6, ptr noundef %7, i64 noundef 64, i64 noundef 0)
  %9 = icmp ne i64 %8, 64
  br i1 %9, label %21, label %10

10:                                               ; preds = %2
  %11 = load ptr, ptr %5, align 8
  %12 = getelementptr inbounds %struct.Elf64_Ehdr, ptr %11, i32 0, i32 0
  %13 = getelementptr inbounds [16 x i8], ptr %12, i64 0, i64 0
  %14 = call i32 @memcmp(ptr noundef %13, ptr noundef @.str, i64 noundef 4) #6
  %15 = icmp ne i32 %14, 0
  br i1 %15, label %21, label %16

16:                                               ; preds = %10
  %17 = load ptr, ptr %5, align 8
  %18 = getelementptr inbounds %struct.Elf64_Ehdr, ptr %17, i32 0, i32 3
  %19 = load i32, ptr %18, align 4
  %20 = icmp ne i32 %19, 1
  br i1 %20, label %21, label %22

21:                                               ; preds = %16, %10, %2
  store i32 0, ptr %3, align 4
  br label %23

22:                                               ; preds = %16
  store i32 1, ptr %3, align 4
  br label %23

23:                                               ; preds = %22, %21
  %24 = load i32, ptr %3, align 4
  ret i32 %24
}