; Function Attrs: nounwind uwtable
define hidden range(i32 0, 2) i32 @read_elf_header(i32 noundef %0, ptr noundef %1) local_unnamed_addr #0 {
  %3 = tail call i64 @pread64(i32 noundef %0, ptr noundef %1, i64 noundef 64, i64 noundef 0) #8
  %.not = icmp eq i64 %3, 64
  br i1 %.not, label %4, label %8

4:                                                ; preds = %2
  %bcmp = tail call i32 @bcmp(ptr noundef nonnull dereferenceable(4) %1, ptr noundef nonnull dereferenceable(4) @.str, i64 4)
  %.not4 = icmp eq i32 %bcmp, 0
  br i1 %.not4, label %5, label %8

5:                                                ; preds = %4
  %6 = getelementptr inbounds i8, ptr %1, i64 20
  %7 = load i32, ptr %6, align 4
  %.not5 = icmp eq i32 %7, 1
  %spec.select = zext i1 %.not5 to i32
  br label %8

8:                                                ; preds = %5, %2, %4
  %.0 = phi i32 [ 0, %4 ], [ 0, %2 ], [ %spec.select, %5 ]
  ret i32 %.0
}